; Function Attrs: nounwind uwtable
define ptr @l_Lean_Compiler_LCNF_normLetDecl___at_Lean_Compiler_LCNF_Code_cse_go___spec__1(i8 noundef zeroext %0, ptr noundef %1, ptr noundef %2, ptr noundef %3, ptr noundef %4, ptr noundef %5, ptr noundef %6, ptr noundef %7) local_unnamed_addr #1 {
  %9 = getelementptr inbounds nuw i8, ptr %1, i64 24
  %10 = load ptr, ptr %9, align 8, !tbaa !9
  %11 = ptrtoint ptr %10 to i64
  %12 = and i64 %11, 1
  %.not = icmp eq i64 %12, 0
  br i1 %.not, label %13, label %lean_inc.exit45

13:                                               ; preds = %8
  %.val.i = load i32, ptr %10, align 4, !tbaa !4
  %14 = icmp sgt i32 %.val.i, 0
  br i1 %14, label %15, label %17, !prof !11

15:                                               ; preds = %13
  %16 = add nuw i32 %.val.i, 1
  store i32 %16, ptr %10, align 4, !tbaa !4
  br label %lean_inc.exit45

17:                                               ; preds = %13
  %.not.i58 = icmp eq i32 %.val.i, 0
  br i1 %.not.i58, label %lean_inc.exit45, label %18

18:                                               ; preds = %17
  tail call void @lean_inc_ref_cold(ptr noundef nonnull %10) #4
  br label %lean_inc.exit45

lean_inc.exit45:                                  ; preds = %18, %17, %15, %8
  %19 = tail call ptr @lean_st_ref_get(ptr noundef %2, ptr noundef %7) #4
  %20 = getelementptr inbounds nuw i8, ptr %19, i64 8
  %21 = load ptr, ptr %20, align 8, !tbaa !9
  %22 = ptrtoint ptr %21 to i64
  %23 = and i64 %22, 1
  %.not80 = icmp eq i64 %23, 0
  br i1 %.not80, label %24, label %lean_inc.exit44

24:                                               ; preds = %lean_inc.exit45
  %.val.i59 = load i32, ptr %21, align 4, !tbaa !4
  %25 = icmp sgt i32 %.val.i59, 0
  br i1 %25, label %26, label %28, !prof !11

26:                                               ; preds = %24
  %27 = add nuw i32 %.val.i59, 1
  store i32 %27, ptr %21, align 4, !tbaa !4
  br label %lean_inc.exit44

28:                                               ; preds = %24
  %.not.i60 = icmp eq i32 %.val.i59, 0
  br i1 %.not.i60, label %lean_inc.exit44, label %29

29:                                               ; preds = %28
  tail call void @lean_inc_ref_cold(ptr noundef nonnull %21) #4
  br label %lean_inc.exit44

lean_inc.exit44:                                  ; preds = %29, %28, %26, %lean_inc.exit45
  %30 = getelementptr inbounds nuw i8, ptr %19, i64 16
  %31 = load ptr, ptr %30, align 8, !tbaa !9
  %32 = ptrtoint ptr %31 to i64
  %33 = and i64 %32, 1
  %.not81 = icmp eq i64 %33, 0
  br i1 %.not81, label %34, label %lean_inc.exit43

34:                                               ; preds = %lean_inc.exit44
  %.val.i62 = load i32, ptr %31, align 4, !tbaa !4
  %35 = icmp sgt i32 %.val.i62, 0
  br i1 %35, label %36, label %38, !prof !11

36:                                               ; preds = %34
  %37 = add nuw i32 %.val.i62, 1
  store i32 %37, ptr %31, align 4, !tbaa !4
  br label %lean_inc.exit43

38:                                               ; preds = %34
  %.not.i63 = icmp eq i32 %.val.i62, 0
  br i1 %.not.i63, label %lean_inc.exit43, label %39

39:                                               ; preds = %38
  tail call void @lean_inc_ref_cold(ptr noundef nonnull %31) #4
  br label %lean_inc.exit43

lean_inc.exit43:                                  ; preds = %39, %38, %36, %lean_inc.exit44
  %40 = ptrtoint ptr %19 to i64
  %41 = and i64 %40, 1
  %.not82 = icmp eq i64 %41, 0
  br i1 %.not82, label %42, label %lean_dec.exit49

42:                                               ; preds = %lean_inc.exit43
  %43 = load i32, ptr %19, align 4, !tbaa !4
  %44 = icmp sgt i32 %43, 1
  br i1 %44, label %45, label %47, !prof !11

45:                                               ; preds = %42
  %46 = add nsw i32 %43, -1
  store i32 %46, ptr %19, align 4, !tbaa !4
  br label %lean_dec.exit49

47:                                               ; preds = %42
  %.not.i = icmp eq i32 %43, 0
  br i1 %.not.i, label %lean_dec.exit49, label %48

48:                                               ; preds = %47
  tail call void @lean_dec_ref_cold(ptr noundef nonnull %19) #4
  br label %lean_dec.exit49

lean_dec.exit49:                                  ; preds = %48, %47, %45, %lean_inc.exit43
  %49 = getelementptr inbounds nuw i8, ptr %21, i64 16
  %50 = load ptr, ptr %49, align 8, !tbaa !9
  %51 = ptrtoint ptr %50 to i64
  %52 = and i64 %51, 1
  %.not83 = icmp eq i64 %52, 0
  br i1 %.not83, label %53, label %lean_inc.exit42

53:                                               ; preds = %lean_dec.exit49
  %.val.i65 = load i32, ptr %50, align 4, !tbaa !4
  %54 = icmp sgt i32 %.val.i65, 0
  br i1 %54, label %55, label %57, !prof !11

55:                                               ; preds = %53
  %56 = add nuw i32 %.val.i65, 1
  store i32 %56, ptr %50, align 4, !tbaa !4
  br label %lean_inc.exit42

57:                                               ; preds = %53
  %.not.i66 = icmp eq i32 %.val.i65, 0
  br i1 %.not.i66, label %lean_inc.exit42, label %58

58:                                               ; preds = %57
  tail call void @lean_inc_ref_cold(ptr noundef nonnull %50) #4
  br label %lean_inc.exit42

lean_inc.exit42:                                  ; preds = %58, %57, %55, %lean_dec.exit49
  br i1 %.not80, label %59, label %lean_dec.exit48

59:                                               ; preds = %lean_inc.exit42
  %60 = load i32, ptr %21, align 4, !tbaa !4
  %61 = icmp sgt i32 %60, 1
  br i1 %61, label %62, label %64, !prof !11

62:                                               ; preds = %59
  %63 = add nsw i32 %60, -1
  store i32 %63, ptr %21, align 4, !tbaa !4
  br label %lean_dec.exit48

64:                                               ; preds = %59
  %.not.i50 = icmp eq i32 %60, 0
  br i1 %.not.i50, label %lean_dec.exit48, label %65

65:                                               ; preds = %64
  tail call void @lean_dec_ref_cold(ptr noundef nonnull %21) #4
  br label %lean_dec.exit48

lean_dec.exit48:                                  ; preds = %65, %64, %62, %lean_inc.exit42
  %66 = tail call ptr @l___private_Lean_Compiler_LCNF_CompilerM_0__Lean_Compiler_LCNF_normExprImp_go(ptr noundef %50, i8 noundef zeroext %0, ptr noundef %10) #4
  br i1 %.not83, label %67, label %lean_dec.exit47

67:                                               ; preds = %lean_dec.exit48
  %68 = load i32, ptr %50, align 4, !tbaa !4
  %69 = icmp sgt i32 %68, 1
  br i1 %69, label %70, label %72, !prof !11

70:                                               ; preds = %67
  %71 = add nsw i32 %68, -1
  store i32 %71, ptr %50, align 4, !tbaa !4
  br label %lean_dec.exit47

72:                                               ; preds = %67
  %.not.i52 = icmp eq i32 %68, 0
  br i1 %.not.i52, label %lean_dec.exit47, label %73

73:                                               ; preds = %72
  tail call void @lean_dec_ref_cold(ptr noundef nonnull %50) #4
  br label %lean_dec.exit47

lean_dec.exit47:                                  ; preds = %73, %72, %70, %lean_dec.exit48
  %74 = getelementptr inbounds nuw i8, ptr %1, i64 32
  %75 = load ptr, ptr %74, align 8, !tbaa !9
  %76 = ptrtoint ptr %75 to i64
  %77 = and i64 %76, 1
  %.not84 = icmp eq i64 %77, 0
  br i1 %.not84, label %78, label %lean_inc.exit41

78:                                               ; preds = %lean_dec.exit47
  %.val.i68 = load i32, ptr %75, align 4, !tbaa !4
  %79 = icmp sgt i32 %.val.i68, 0
  br i1 %79, label %80, label %82, !prof !11

80:                                               ; preds = %78
  %81 = add nuw i32 %.val.i68, 1
  store i32 %81, ptr %75, align 4, !tbaa !4
  br label %lean_inc.exit41

82:                                               ; preds = %78
  %.not.i69 = icmp eq i32 %.val.i68, 0
  br i1 %.not.i69, label %lean_inc.exit41, label %83

83:                                               ; preds = %82
  tail call void @lean_inc_ref_cold(ptr noundef nonnull %75) #4
  br label %lean_inc.exit41

lean_inc.exit41:                                  ; preds = %83, %82, %80, %lean_dec.exit47
  %84 = tail call ptr @lean_st_ref_get(ptr noundef %2, ptr noundef %31) #4
  %85 = getelementptr inbounds nuw i8, ptr %84, i64 8
  %86 = load ptr, ptr %85, align 8, !tbaa !9
  %87 = ptrtoint ptr %86 to i64
  %88 = and i64 %87, 1
  %.not85 = icmp eq i64 %88, 0
  br i1 %.not85, label %89, label %lean_inc.exit40

89:                                               ; preds = %lean_inc.exit41
  %.val.i71 = load i32, ptr %86, align 4, !tbaa !4
  %90 = icmp sgt i32 %.val.i71, 0
  br i1 %90, label %91, label %93, !prof !11

91:                                               ; preds = %89
  %92 = add nuw i32 %.val.i71, 1
  store i32 %92, ptr %86, align 4, !tbaa !4
  br label %lean_inc.exit40

93:                                               ; preds = %89
  %.not.i72 = icmp eq i32 %.val.i71, 0
  br i1 %.not.i72, label %lean_inc.exit40, label %94

94:                                               ; preds = %93
  tail call void @lean_inc_ref_cold(ptr noundef nonnull %86) #4
  br label %lean_inc.exit40

lean_inc.exit40:                                  ; preds = %94, %93, %91, %lean_inc.exit41
  %95 = getelementptr inbounds nuw i8, ptr %84, i64 16
  %96 = load ptr, ptr %95, align 8, !tbaa !9
  %97 = ptrtoint ptr %96 to i64
  %98 = and i64 %97, 1
  %.not86 = icmp eq i64 %98, 0
  br i1 %.not86, label %99, label %lean_inc.exit39

99:                                               ; preds = %lean_inc.exit40
  %.val.i74 = load i32, ptr %96, align 4, !tbaa !4
  %100 = icmp sgt i32 %.val.i74, 0
  br i1 %100, label %101, label %103, !prof !11

101:                                              ; preds = %99
  %102 = add nuw i32 %.val.i74, 1
  store i32 %102, ptr %96, align 4, !tbaa !4
  br label %lean_inc.exit39

103:                                              ; preds = %99
  %.not.i75 = icmp eq i32 %.val.i74, 0
  br i1 %.not.i75, label %lean_inc.exit39, label %104

104:                                              ; preds = %103
  tail call void @lean_inc_ref_cold(ptr noundef nonnull %96) #4
  br label %lean_inc.exit39

lean_inc.exit39:                                  ; preds = %104, %103, %101, %lean_inc.exit40
  %105 = ptrtoint ptr %84 to i64
  %106 = and i64 %105, 1
  %.not87 = icmp eq i64 %106, 0
  br i1 %.not87, label %107, label %lean_dec.exit46

107:                                              ; preds = %lean_inc.exit39
  %108 = load i32, ptr %84, align 4, !tbaa !4
  %109 = icmp sgt i32 %108, 1
  br i1 %109, label %110, label %112, !prof !11

110:                                              ; preds = %107
  %111 = add nsw i32 %108, -1
  store i32 %111, ptr %84, align 4, !tbaa !4
  br label %lean_dec.exit46

112:                                              ; preds = %107
  %.not.i54 = icmp eq i32 %108, 0
  br i1 %.not.i54, label %lean_dec.exit46, label %113

113:                                              ; preds = %112
  tail call void @lean_dec_ref_cold(ptr noundef nonnull %84) #4
  br label %lean_dec.exit46

lean_dec.exit46:                                  ; preds = %113, %112, %110, %lean_inc.exit39
  %114 = getelementptr inbounds nuw i8, ptr %86, i64 16
  %115 = load ptr, ptr %114, align 8, !tbaa !9
  %116 = ptrtoint ptr %115 to i64
  %117 = and i64 %116, 1
  %.not88 = icmp eq i64 %117, 0
  br i1 %.not88, label %118, label %lean_inc.exit

118:                                              ; preds = %lean_dec.exit46
  %.val.i77 = load i32, ptr %115, align 4, !tbaa !4
  %119 = icmp sgt i32 %.val.i77, 0
  br i1 %119, label %120, label %122, !prof !11

120:                                              ; preds = %118
  %121 = add nuw i32 %.val.i77, 1
  store i32 %121, ptr %115, align 4, !tbaa !4
  br label %lean_inc.exit

122:                                              ; preds = %118
  %.not.i78 = icmp eq i32 %.val.i77, 0
  br i1 %.not.i78, label %lean_inc.exit, label %123

123:                                              ; preds = %122
  tail call void @lean_inc_ref_cold(ptr noundef nonnull %115) #4
  br label %lean_inc.exit

lean_inc.exit:                                    ; preds = %123, %122, %120, %lean_dec.exit46
  br i1 %.not85, label %124, label %lean_dec.exit

124:                                              ; preds = %lean_inc.exit
  %125 = load i32, ptr %86, align 4, !tbaa !4
  %126 = icmp sgt i32 %125, 1
  br i1 %126, label %127, label %129, !prof !11

127:                                              ; preds = %124
  %128 = add nsw i32 %125, -1
  store i32 %128, ptr %86, align 4, !tbaa !4
  br label %lean_dec.exit

129:                                              ; preds = %124
  %.not.i56 = icmp eq i32 %125, 0
  br i1 %.not.i56, label %lean_dec.exit, label %130

130:                                              ; preds = %129
  tail call void @lean_dec_ref_cold(ptr noundef nonnull %86) #4
  br label %lean_dec.exit

lean_dec.exit:                                    ; preds = %130, %129, %127, %lean_inc.exit
  %131 = tail call ptr @l___private_Lean_Compiler_LCNF_CompilerM_0__Lean_Compiler_LCNF_normLetValueImp(ptr noundef %115, ptr noundef %75, i8 noundef zeroext %0) #4
  %132 = tail call ptr @l___private_Lean_Compiler_LCNF_CompilerM_0__Lean_Compiler_LCNF_updateLetDeclImp(ptr noundef nonnull %1, ptr noundef %66, ptr noundef %131, ptr noundef %3, ptr noundef %4, ptr noundef %5, ptr noundef %6, ptr noundef %96) #4
  ret ptr %132
}